target datalayout = "e-m:e-p270:32:32-p271:32:32-p272:64:64-i64:64-i128:128-f80:128-n8:16:32:64-S128"
target triple = "x86_64-pc-linux-gnu"

%"class.gmx::CommandLineModuleManager::Impl" = type <{ %"class.std::map", %"class.std::vector", ptr, %"class.std::__cxx11::basic_string", ptr, ptr, i8, [7 x i8] }>
%"class.std::map" = type { %"class.std::_Rb_tree" }
%"class.std::_Rb_tree" = type { %"struct.std::_Rb_tree<std::__cxx11::basic_string<char>, std::pair<const std::__cxx11::basic_string<char>, std::unique_ptr<gmx::ICommandLineModule>>, std::_Select1st<std::pair<const std::__cxx11::basic_string<char>, std::unique_ptr<gmx::ICommandLineModule>>>, std::less<std::__cxx11::basic_string<char>>>::_Rb_tree_impl" }
%"struct.std::_Rb_tree<std::__cxx11::basic_string<char>, std::pair<const std::__cxx11::basic_string<char>, std::unique_ptr<gmx::ICommandLineModule>>, std::_Select1st<std::pair<const std::__cxx11::basic_string<char>, std::unique_ptr<gmx::ICommandLineModule>>>, std::less<std::__cxx11::basic_string<char>>>::_Rb_tree_impl" = type { %"struct.std::_Rb_tree_key_compare", %"struct.std::_Rb_tree_header" }
%"struct.std::_Rb_tree_key_compare" = type { %"struct.std::less" }
%"struct.std::less" = type { i8 }
%"struct.std::_Rb_tree_header" = type { %"struct.std::_Rb_tree_node_base", i64 }
%"struct.std::_Rb_tree_node_base" = type { i32, ptr, ptr, ptr }
%"class.std::vector" = type { %"struct.std::_Vector_base" }
%"struct.std::_Vector_base" = type { %"struct.std::_Vector_base<std::unique_ptr<gmx::CommandLineModuleGroupData>, std::allocator<std::unique_ptr<gmx::CommandLineModuleGroupData>>>::_Vector_impl" }
%"struct.std::_Vector_base<std::unique_ptr<gmx::CommandLineModuleGroupData>, std::allocator<std::unique_ptr<gmx::CommandLineModuleGroupData>>>::_Vector_impl" = type { %"struct.std::_Vector_base<std::unique_ptr<gmx::CommandLineModuleGroupData>, std::allocator<std::unique_ptr<gmx::CommandLineModuleGroupData>>>::_Vector_impl_data" }
%"struct.std::_Vector_base<std::unique_ptr<gmx::CommandLineModuleGroupData>, std::allocator<std::unique_ptr<gmx::CommandLineModuleGroupData>>>::_Vector_impl_data" = type { ptr, ptr, ptr }
%"class.std::__cxx11::basic_string" = type { %"struct.std::__cxx11::basic_string<char>::_Alloc_hider", i64, %union.anon }
%"struct.std::__cxx11::basic_string<char>::_Alloc_hider" = type { ptr }
%union.anon = type { i64, [8 x i8] }
%"class.gmx::CommandLineModuleManager" = type { %"class.std::unique_ptr.97" }
%"class.std::unique_ptr.97" = type { %"struct.std::__uniq_ptr_data.98" }
%"struct.std::__uniq_ptr_data.98" = type { %"class.std::__uniq_ptr_impl.99" }
%"class.std::__uniq_ptr_impl.99" = type { %"class.std::tuple.100" }
%"class.std::tuple.100" = type { %"struct.std::_Tuple_impl.101" }
%"struct.std::_Tuple_impl.101" = type { %"struct.std::_Head_base.104" }
%"struct.std::_Head_base.104" = type { ptr }

@_ZTISt9exception = external constant ptr
@stderr = external global ptr, align 8
@_ZN3gmx24CommandLineModuleManagerC1EPKcPNS_25CommandLineProgramContextE = unnamed_addr alias void (ptr, ptr, ptr), ptr @_ZN3gmx24CommandLineModuleManagerC2EPKcPNS_25CommandLineProgramContextE
@_ZN3gmx24CommandLineModuleManagerD1Ev = unnamed_addr alias void (ptr), ptr @_ZN3gmx24CommandLineModuleManagerD2Ev

; Function Attrs: mustprogress nounwind uwtable
define linkonce_odr noundef nonnull align 8 dereferenceable(8) ptr @_ZNSt10_Head_baseILm0EPN3gmx24CommandLineModuleManager4ImplELb0EE7_M_headERKS4_(ptr noundef nonnull align 8 dereferenceable(8) %0) #2 comdat align 2 {
  %2 = alloca ptr, align 8
  store ptr %0, ptr %2, align 8
  %3 = load ptr, ptr %2, align 8
  %4 = getelementptr inbounds %"struct.std::_Head_base.104", ptr %3, i32 0, i32 0
  ret ptr %4
}

; Function Attrs: mustprogress nounwind uwtable
define linkonce_odr noundef nonnull align 8 dereferenceable(8) ptr @_ZNSt11_Tuple_implILm0EJPN3gmx24CommandLineModuleManager4ImplESt14default_deleteIS2_EEE7_M_headERKS6_(ptr noundef nonnull align 8 dereferenceable(8) %0) #2 comdat align 2 {
  %2 = alloca ptr, align 8
  store ptr %0, ptr %2, align 8
  %3 = load ptr, ptr %2, align 8
  %4 = call noundef nonnull align 8 dereferenceable(8) ptr @_ZNSt10_Head_baseILm0EPN3gmx24CommandLineModuleManager4ImplELb0EE7_M_headERKS4_(ptr noundef nonnull align 8 dereferenceable(8) %3) #13
  ret ptr %4
}

; Function Attrs: mustprogress nounwind uwtable
define linkonce_odr noundef nonnull align 8 dereferenceable(8) ptr @_ZSt12__get_helperILm0EPN3gmx24CommandLineModuleManager4ImplEJSt14default_deleteIS2_EEERKT0_RKSt11_Tuple_implIXT_EJS6_DpT1_EE(ptr noundef nonnull align 8 dereferenceable(8) %0) #2 comdat {
  %2 = alloca ptr, align 8
  store ptr %0, ptr %2, align 8
  %3 = load ptr, ptr %2, align 8
  %4 = call noundef nonnull align 8 dereferenceable(8) ptr @_ZNSt11_Tuple_implILm0EJPN3gmx24CommandLineModuleManager4ImplESt14default_deleteIS2_EEE7_M_headERKS6_(ptr noundef nonnull align 8 dereferenceable(8) %3) #13
  ret ptr %4
}

; Function Attrs: mustprogress nounwind uwtable
define linkonce_odr noundef nonnull align 8 dereferenceable(8) ptr @_ZSt3getILm0EJPN3gmx24CommandLineModuleManager4ImplESt14default_deleteIS2_EEERKNSt13tuple_elementIXT_ESt5tupleIJDpT0_EEE4typeERKSA_(ptr noundef nonnull align 8 dereferenceable(8) %0) #2 comdat {
  %2 = alloca ptr, align 8
  store ptr %0, ptr %2, align 8
  %3 = load ptr, ptr %2, align 8
  %4 = call noundef nonnull align 8 dereferenceable(8) ptr @_ZSt12__get_helperILm0EPN3gmx24CommandLineModuleManager4ImplEJSt14default_deleteIS2_EEERKT0_RKSt11_Tuple_implIXT_EJS6_DpT1_EE(ptr noundef nonnull align 8 dereferenceable(8) %3) #13
  ret ptr %4
}

; Function Attrs: mustprogress nounwind uwtable
define linkonce_odr noundef ptr @_ZNKSt15__uniq_ptr_implIN3gmx24CommandLineModuleManager4ImplESt14default_deleteIS2_EE6_M_ptrEv(ptr noundef nonnull align 8 dereferenceable(8) %0) #2 comdat align 2 {
  %2 = alloca ptr, align 8
  store ptr %0, ptr %2, align 8
  %3 = load ptr, ptr %2, align 8
  %4 = getelementptr inbounds %"class.std::__uniq_ptr_impl.99", ptr %3, i32 0, i32 0
  %5 = call noundef nonnull align 8 dereferenceable(8) ptr @_ZSt3getILm0EJPN3gmx24CommandLineModuleManager4ImplESt14default_deleteIS2_EEERKNSt13tuple_elementIXT_ESt5tupleIJDpT0_EEE4typeERKSA_(ptr noundef nonnull align 8 dereferenceable(8) %4) #13
  %6 = load ptr, ptr %5, align 8
  ret ptr %6
}

; Function Attrs: mustprogress nounwind uwtable
define linkonce_odr noundef ptr @_ZNKSt10unique_ptrIN3gmx24CommandLineModuleManager4ImplESt14default_deleteIS2_EE3getEv(ptr noundef nonnull align 8 dereferenceable(8) %0) #2 comdat align 2 {
  %2 = alloca ptr, align 8
  store ptr %0, ptr %2, align 8
  %3 = load ptr, ptr %2, align 8
  %4 = getelementptr inbounds %"class.std::unique_ptr.97", ptr %3, i32 0, i32 0
  %5 = call noundef ptr @_ZNKSt15__uniq_ptr_implIN3gmx24CommandLineModuleManager4ImplESt14default_deleteIS2_EE6_M_ptrEv(ptr noundef nonnull align 8 dereferenceable(8) %4) #13
  ret ptr %5
}

; Function Attrs: mustprogress nounwind uwtable
define linkonce_odr noundef ptr @_ZNKSt10unique_ptrIN3gmx24CommandLineModuleManager4ImplESt14default_deleteIS2_EEptEv(ptr noundef nonnull align 8 dereferenceable(8) %0) #2 comdat align 2 {
  %2 = alloca ptr, align 8
  store ptr %0, ptr %2, align 8
  %3 = load ptr, ptr %2, align 8
  %4 = call noundef ptr @_ZNKSt10unique_ptrIN3gmx24CommandLineModuleManager4ImplESt14default_deleteIS2_EE3getEv(ptr noundef nonnull align 8 dereferenceable(8) %3) #13
  ret ptr %4
}

; Function Attrs: mustprogress nounwind uwtable
define void @_ZN3gmx24CommandLineModuleManager15setSingleModuleEPNS_18ICommandLineModuleE(ptr noundef nonnull align 8 dereferenceable(8) %0, ptr noundef %1) #2 align 2 {
  %3 = alloca ptr, align 8
  %4 = alloca ptr, align 8
  store ptr %0, ptr %3, align 8
  store ptr %1, ptr %4, align 8
  %5 = load ptr, ptr %3, align 8
  %6 = load ptr, ptr %4, align 8
  %7 = getelementptr inbounds %"class.gmx::CommandLineModuleManager", ptr %5, i32 0, i32 0
  %8 = call noundef ptr @_ZNKSt10unique_ptrIN3gmx24CommandLineModuleManager4ImplESt14default_deleteIS2_EEptEv(ptr noundef nonnull align 8 dereferenceable(8) %7) #13
  %9 = getelementptr inbounds %"class.gmx::CommandLineModuleManager::Impl", ptr %8, i32 0, i32 5
  store ptr %6, ptr %9, align 8
  ret void
}

; Function Attrs: mustprogress uwtable
define noundef i32 @_ZN3gmx24CommandLineModuleManager21runAsMainSingleModuleEiPPcPNS_18ICommandLineModuleE(i32 noundef %0, ptr noundef %1, ptr noundef %2) #0 align 2 personality ptr @__gxx_personality_v0 {
  %4 = alloca i32, align 4
  %5 = alloca i32, align 4
  %6 = alloca ptr, align 8
  %7 = alloca ptr, align 8
  %8 = alloca ptr, align 8
  %9 = alloca %"class.gmx::CommandLineModuleManager", align 8
  %10 = alloca ptr, align 8
  %11 = alloca i32, align 4
  %12 = alloca i32, align 4
  %13 = alloca ptr, align 8
  store i32 %0, ptr %5, align 4
  store ptr %1, ptr %6, align 8
  store ptr %2, ptr %7, align 8
  %14 = call noundef nonnull align 8 dereferenceable(16) ptr @_ZN3gmx18initForCommandLineEPiPPPc(ptr noundef %5, ptr noundef %6)
  store ptr %14, ptr %8, align 8
  %15 = load ptr, ptr %8, align 8
  invoke void @_ZN3gmx24CommandLineModuleManagerC1EPKcPNS_25CommandLineProgramContextE(ptr noundef nonnull align 8 dereferenceable(8) %9, ptr noundef null, ptr noundef %15)
          to label %16 unwind label %24

16:                                               ; preds = %3
  %17 = load ptr, ptr %7, align 8
  call void @_ZN3gmx24CommandLineModuleManager15setSingleModuleEPNS_18ICommandLineModuleE(ptr noundef nonnull align 8 dereferenceable(8) %9, ptr noundef %17)
  %18 = load i32, ptr %5, align 4
  %19 = load ptr, ptr %6, align 8
  %20 = invoke noundef i32 @_ZN3gmx24CommandLineModuleManager3runEiPPc(ptr noundef nonnull align 8 dereferenceable(8) %9, i32 noundef %18, ptr noundef %19)
          to label %21 unwind label %28

21:                                               ; preds = %16
  store i32 %20, ptr %12, align 4
  invoke void @_ZN3gmx22finalizeForCommandLineEv()
          to label %22 unwind label %28

22:                                               ; preds = %21
  %23 = load i32, ptr %12, align 4
  store i32 %23, ptr %4, align 4
  call void @_ZN3gmx24CommandLineModuleManagerD1Ev(ptr noundef nonnull align 8 dereferenceable(8) %9) #13
  br label %51

24:                                               ; preds = %3
  %25 = landingpad { ptr, i32 }
          catch ptr @_ZTISt9exception
  %26 = extractvalue { ptr, i32 } %25, 0
  store ptr %26, ptr %10, align 8
  %27 = extractvalue { ptr, i32 } %25, 1
  store i32 %27, ptr %11, align 4
  br label %32

28:                                               ; preds = %21, %16
  %29 = landingpad { ptr, i32 }
          cleanup
          catch ptr @_ZTISt9exception
  %30 = extractvalue { ptr, i32 } %29, 0
  store ptr %30, ptr %10, align 8
  %31 = extractvalue { ptr, i32 } %29, 1
  store i32 %31, ptr %11, align 4
  call void @_ZN3gmx24CommandLineModuleManagerD1Ev(ptr noundef nonnull align 8 dereferenceable(8) %9) #13
  br label %32

32:                                               ; preds = %28, %24
  %33 = load i32, ptr %11, align 4
  %34 = call i32 @llvm.eh.typeid.for(ptr @_ZTISt9exception) #13
  %35 = icmp eq i32 %33, %34
  br i1 %35, label %36, label %53

36:                                               ; preds = %32
  %37 = load ptr, ptr %10, align 8
  %38 = call ptr @__cxa_begin_catch(ptr %37) #13
  store ptr %38, ptr %13, align 8
  %39 = load ptr, ptr @stderr, align 8
  %40 = load ptr, ptr %13, align 8
  invoke void @_ZN3gmx22printFatalErrorMessageEP8_IO_FILERKSt9exception(ptr noundef %39, ptr noundef nonnull align 8 dereferenceable(8) %40)
          to label %41 unwind label %45

41:                                               ; preds = %36
  %42 = load ptr, ptr %13, align 8
  %43 = invoke noundef i32 @_ZN3gmx36processExceptionAtExitForCommandLineERKSt9exception(ptr noundef nonnull align 8 dereferenceable(8) %42)
          to label %44 unwind label %45

44:                                               ; preds = %41
  store i32 %43, ptr %4, align 4
  call void @__cxa_end_catch()
  br label %51

45:                                               ; preds = %41, %36
  %46 = landingpad { ptr, i32 }
          cleanup
  %47 = extractvalue { ptr, i32 } %46, 0
  store ptr %47, ptr %10, align 8
  %48 = extractvalue { ptr, i32 } %46, 1
  store i32 %48, ptr %11, align 4
  invoke void @__cxa_end_catch()
          to label %49 unwind label %58

49:                                               ; preds = %45
  br label %53

50:                                               ; No predecessors!
  call void @llvm.trap()
  unreachable

51:                                               ; preds = %44, %22
  %52 = load i32, ptr %4, align 4
  ret i32 %52

53:                                               ; preds = %49, %32
  %54 = load ptr, ptr %10, align 8
  %55 = load i32, ptr %11, align 4
  %56 = insertvalue { ptr, i32 } poison, ptr %54, 0
  %57 = insertvalue { ptr, i32 } %56, i32 %55, 1
  resume { ptr, i32 } %57

58:                                               ; preds = %45
  %59 = landingpad { ptr, i32 }
          catch ptr null
  %60 = extractvalue { ptr, i32 } %59, 0
  call void @__clang_call_terminate(ptr %60) #14
  unreachable
}