; Function Attrs: mustprogress uwtable
define noundef i32 @_ZN3gmx24CommandLineModuleManager21runAsMainSingleModuleEiPPcPNS_18ICommandLineModuleE(i32 noundef %0, ptr noundef %1, ptr noundef %2) local_unnamed_addr #0 align 2 personality ptr @__gxx_personality_v0 {
  %4 = alloca i32, align 4
  %5 = alloca ptr, align 8
  %6 = alloca %"class.gmx::CommandLineModuleManager", align 8
  store i32 %0, ptr %4, align 4
  store ptr %1, ptr %5, align 8
  %7 = call noundef nonnull align 8 dereferenceable(16) ptr @_ZN3gmx18initForCommandLineEPiPPPc(ptr noundef nonnull %4, ptr noundef nonnull %5)
  invoke void @_ZN3gmx24CommandLineModuleManagerC1EPKcPNS_25CommandLineProgramContextE(ptr noundef nonnull align 8 dereferenceable(8) %6, ptr noundef null, ptr noundef nonnull %7)
          to label %8 unwind label %16

8:                                                ; preds = %3
  %9 = load ptr, ptr %6, align 8
  %10 = getelementptr inbounds i8, ptr %9, i64 120
  store ptr %2, ptr %10, align 8
  %11 = load i32, ptr %4, align 4
  %12 = load ptr, ptr %5, align 8
  %13 = invoke noundef i32 @_ZN3gmx24CommandLineModuleManager3runEiPPc(ptr noundef nonnull align 8 dereferenceable(8) %6, i32 noundef %11, ptr noundef %12)
          to label %14 unwind label %18

14:                                               ; preds = %8
  invoke void @_ZN3gmx22finalizeForCommandLineEv()
          to label %15 unwind label %18

15:                                               ; preds = %14
  call void @_ZN3gmx24CommandLineModuleManagerD1Ev(ptr noundef nonnull align 8 dereferenceable(8) %6) #21
  br label %31

16:                                               ; preds = %3
  %17 = landingpad { ptr, i32 }
          catch ptr @_ZTISt9exception
  br label %20

18:                                               ; preds = %14, %8
  %19 = landingpad { ptr, i32 }
          cleanup
          catch ptr @_ZTISt9exception
  call void @_ZN3gmx24CommandLineModuleManagerD1Ev(ptr noundef nonnull align 8 dereferenceable(8) %6) #21
  br label %20

20:                                               ; preds = %18, %16
  %.pn = phi { ptr, i32 } [ %19, %18 ], [ %17, %16 ]
  %.010 = extractvalue { ptr, i32 } %.pn, 1
  %21 = call i32 @llvm.eh.typeid.for(ptr nonnull @_ZTISt9exception) #21
  %22 = icmp eq i32 %.010, %21
  br i1 %22, label %23, label %32

23:                                               ; preds = %20
  %.09 = extractvalue { ptr, i32 } %.pn, 0
  %24 = call ptr @__cxa_begin_catch(ptr %.09) #21
  %25 = load ptr, ptr @stderr, align 8
  invoke void @_ZN3gmx22printFatalErrorMessageEP8_IO_FILERKSt9exception(ptr noundef %25, ptr noundef nonnull align 8 dereferenceable(8) %24)
          to label %26 unwind label %29

26:                                               ; preds = %23
  %27 = invoke noundef i32 @_ZN3gmx36processExceptionAtExitForCommandLineERKSt9exception(ptr noundef nonnull align 8 dereferenceable(8) %24)
          to label %28 unwind label %29

28:                                               ; preds = %26
  call void @__cxa_end_catch()
  br label %31

29:                                               ; preds = %26, %23
  %30 = landingpad { ptr, i32 }
          cleanup
  invoke void @__cxa_end_catch()
          to label %32 unwind label %33

31:                                               ; preds = %28, %15
  %.0 = phi i32 [ %13, %15 ], [ %27, %28 ]
  ret i32 %.0

32:                                               ; preds = %29, %20
  %.merged = phi { ptr, i32 } [ %30, %29 ], [ %.pn, %20 ]
  resume { ptr, i32 } %.merged

33:                                               ; preds = %29
  %34 = landingpad { ptr, i32 }
          catch ptr null
  %35 = extractvalue { ptr, i32 } %34, 0
  call void @__clang_call_terminate(ptr %35) #24
  unreachable
}